; ModuleID = 'source-C-CXX/11/782.cpp'
source_filename = "source-C-CXX/11/782.cpp"
target datalayout = "e-m:e-p270:32:32-p271:32:32-p272:64:64-i64:64-f80:128-n8:16:32:64-S128"
target triple = "x86_64-pc-linux-gnu"

%"class.std::ios_base::Init" = type { i8 }
%"class.std::basic_istream" = type { i32 (...)**, i64, %"class.std::basic_ios" }
%"class.std::basic_ios" = type { %"class.std::ios_base", %"class.std::basic_ostream"*, i8, i8, %"class.std::basic_streambuf"*, %"class.std::ctype"*, %"class.std::num_put"*, %"class.std::num_get"* }
%"class.std::ios_base" = type { i32 (...)**, i64, i64, i32, i32, i32, %"struct.std::ios_base::_Callback_list"*, %"struct.std::ios_base::_Words", [8 x %"struct.std::ios_base::_Words"], i32, %"struct.std::ios_base::_Words"*, %"class.std::locale" }
%"struct.std::ios_base::_Callback_list" = type { %"struct.std::ios_base::_Callback_list"*, void (i32, %"class.std::ios_base"*, i32)*, i32, i32 }
%"struct.std::ios_base::_Words" = type { i8*, i64 }
%"class.std::locale" = type { %"class.std::locale::_Impl"* }
%"class.std::locale::_Impl" = type { i32, %"class.std::locale::facet"**, i64, %"class.std::locale::facet"**, i8** }
%"class.std::locale::facet" = type <{ i32 (...)**, i32, [4 x i8] }>
%"class.std::basic_ostream" = type { i32 (...)**, %"class.std::basic_ios" }
%"class.std::basic_streambuf" = type { i32 (...)**, i8*, i8*, i8*, i8*, i8*, i8*, %"class.std::locale" }
%"class.std::ctype" = type <{ %"class.std::locale::facet.base", [4 x i8], %struct.__locale_struct*, i8, [7 x i8], i32*, i32*, i16*, i8, [256 x i8], [256 x i8], i8, [6 x i8] }>
%"class.std::locale::facet.base" = type <{ i32 (...)**, i32 }>
%struct.__locale_struct = type { [13 x %struct.__locale_data*], i16*, i32*, i32*, [13 x i8*] }
%struct.__locale_data = type opaque
%"class.std::num_put" = type { %"class.std::locale::facet.base", [4 x i8] }
%"class.std::num_get" = type { %"class.std::locale::facet.base", [4 x i8] }

@_ZStL8__ioinit = internal global %"class.std::ios_base::Init" zeroinitializer, align 1
@__dso_handle = external hidden global i8
@_ZSt3cin = external global %"class.std::basic_istream", align 8
@_ZSt4cout = external global %"class.std::basic_ostream", align 8
@llvm.global_ctors = appending global [1 x { i32, void ()*, i8* }] [{ i32, void ()*, i8* } { i32 65535, void ()* @_GLOBAL__sub_I_782.cpp, i8* null }]

declare void @_ZNSt8ios_base4InitC1Ev(%"class.std::ios_base::Init"* nonnull align 1 dereferenceable(1)) unnamed_addr #0

; Function Attrs: nounwind
declare void @_ZNSt8ios_base4InitD1Ev(%"class.std::ios_base::Init"* nonnull align 1 dereferenceable(1)) unnamed_addr #1

; Function Attrs: nofree nounwind
declare i32 @__cxa_atexit(void (i8*)*, i8*, i8*) local_unnamed_addr #2

; Function Attrs: mustprogress norecurse sspstrong uwtable
define dso_local i32 @main() local_unnamed_addr #3 {
  %1 = alloca [17 x i32], align 16
  %2 = bitcast [17 x i32]* %1 to i8*
  call void @llvm.lifetime.start.p0i8(i64 68, i8* nonnull %2) #8
  br label %3

3:                                                ; preds = %12, %0
  %4 = phi i64 [ 1, %0 ], [ %13, %12 ]
  %5 = phi i32 [ 0, %0 ], [ %14, %12 ]
  %6 = getelementptr inbounds [17 x i32], [17 x i32]* %1, i64 0, i64 %4
  %7 = call nonnull align 8 dereferenceable(16) %"class.std::basic_istream"* @_ZNSirsERi(%"class.std::basic_istream"* nonnull align 8 dereferenceable(16) @_ZSt3cin, i32* nonnull align 4 dereferenceable(4) %6)
  %8 = add nuw i32 %5, 1
  %9 = load i32, i32* %6, align 4, !tbaa !5
  switch i32 %9, label %10 [
    i32 0, label %15
    i32 -1, label %15
  ]

10:                                               ; preds = %3
  %11 = add nuw i64 %4, 1
  br label %12

12:                                               ; preds = %10, %127
  %13 = phi i64 [ %11, %10 ], [ 1, %127 ]
  %14 = phi i32 [ %8, %10 ], [ 0, %127 ]
  br label %3, !llvm.loop !9

15:                                               ; preds = %3, %3
  %16 = zext i32 %8 to i64
  %17 = getelementptr inbounds [17 x i32], [17 x i32]* %1, i64 0, i64 %16
  %18 = load i32, i32* %17, align 4, !tbaa !5
  %19 = icmp eq i32 %18, -1
  br i1 %19, label %131, label %20

20:                                               ; preds = %15
  %21 = icmp eq i32 %5, 0
  br i1 %21, label %99, label %22

22:                                               ; preds = %20
  %23 = add nuw i32 %5, 2
  %24 = zext i32 %23 to i64
  %25 = add nsw i64 %24, -2
  br label %31

26:                                               ; preds = %86, %79
  %27 = phi i32 [ %81, %79 ], [ %96, %86 ]
  %28 = add nuw nsw i64 %34, 1
  %29 = icmp eq i64 %37, %16
  %30 = add i64 %32, 1
  br i1 %29, label %99, label %31, !llvm.loop !11

31:                                               ; preds = %26, %22
  %32 = phi i64 [ %30, %26 ], [ 0, %22 ]
  %33 = phi i64 [ %37, %26 ], [ 1, %22 ]
  %34 = phi i64 [ %28, %26 ], [ 2, %22 ]
  %35 = phi i32 [ %27, %26 ], [ 0, %22 ]
  %36 = sub i64 %25, %32
  %37 = add nuw nsw i64 %33, 1
  %38 = getelementptr inbounds [17 x i32], [17 x i32]* %1, i64 0, i64 %33
  %39 = load i32, i32* %38, align 4, !tbaa !5
  %40 = shl nsw i32 %39, 1
  %41 = icmp ult i64 %36, 8
  br i1 %41, label %83, label %42

42:                                               ; preds = %31
  %43 = and i64 %36, -8
  %44 = add i64 %34, %43
  %45 = insertelement <4 x i32> <i32 poison, i32 0, i32 0, i32 0>, i32 %35, i32 0
  %46 = insertelement <4 x i32> poison, i32 %40, i32 0
  %47 = shufflevector <4 x i32> %46, <4 x i32> poison, <4 x i32> zeroinitializer
  %48 = insertelement <4 x i32> poison, i32 %40, i32 0
  %49 = shufflevector <4 x i32> %48, <4 x i32> poison, <4 x i32> zeroinitializer
  %50 = insertelement <4 x i32> poison, i32 %39, i32 0
  %51 = shufflevector <4 x i32> %50, <4 x i32> poison, <4 x i32> zeroinitializer
  %52 = insertelement <4 x i32> poison, i32 %39, i32 0
  %53 = shufflevector <4 x i32> %52, <4 x i32> poison, <4 x i32> zeroinitializer
  br label %54

54:                                               ; preds = %54, %42
  %55 = phi i64 [ 0, %42 ], [ %77, %54 ]
  %56 = phi <4 x i32> [ %45, %42 ], [ %75, %54 ]
  %57 = phi <4 x i32> [ zeroinitializer, %42 ], [ %76, %54 ]
  %58 = add i64 %34, %55
  %59 = getelementptr inbounds [17 x i32], [17 x i32]* %1, i64 0, i64 %58
  %60 = bitcast i32* %59 to <4 x i32>*
  %61 = load <4 x i32>, <4 x i32>* %60, align 4, !tbaa !5
  %62 = getelementptr inbounds i32, i32* %59, i64 4
  %63 = bitcast i32* %62 to <4 x i32>*
  %64 = load <4 x i32>, <4 x i32>* %63, align 4, !tbaa !5
  %65 = icmp eq <4 x i32> %47, %61
  %66 = icmp eq <4 x i32> %49, %64
  %67 = shl nsw <4 x i32> %61, <i32 1, i32 1, i32 1, i32 1>
  %68 = shl nsw <4 x i32> %64, <i32 1, i32 1, i32 1, i32 1>
  %69 = icmp eq <4 x i32> %67, %51
  %70 = icmp eq <4 x i32> %68, %53
  %71 = select <4 x i1> %65, <4 x i1> <i1 true, i1 true, i1 true, i1 true>, <4 x i1> %69
  %72 = select <4 x i1> %66, <4 x i1> <i1 true, i1 true, i1 true, i1 true>, <4 x i1> %70
  %73 = zext <4 x i1> %71 to <4 x i32>
  %74 = zext <4 x i1> %72 to <4 x i32>
  %75 = add <4 x i32> %56, %73
  %76 = add <4 x i32> %57, %74
  %77 = add nuw i64 %55, 8
  %78 = icmp eq i64 %77, %43
  br i1 %78, label %79, label %54, !llvm.loop !12

79:                                               ; preds = %54
  %80 = add <4 x i32> %76, %75
  %81 = call i32 @llvm.vector.reduce.add.v4i32(<4 x i32> %80)
  %82 = icmp eq i64 %36, %43
  br i1 %82, label %26, label %83

83:                                               ; preds = %31, %79
  %84 = phi i64 [ %34, %31 ], [ %44, %79 ]
  %85 = phi i32 [ %35, %31 ], [ %81, %79 ]
  br label %86

86:                                               ; preds = %83, %86
  %87 = phi i64 [ %97, %86 ], [ %84, %83 ]
  %88 = phi i32 [ %96, %86 ], [ %85, %83 ]
  %89 = getelementptr inbounds [17 x i32], [17 x i32]* %1, i64 0, i64 %87
  %90 = load i32, i32* %89, align 4, !tbaa !5
  %91 = icmp eq i32 %40, %90
  %92 = shl nsw i32 %90, 1
  %93 = icmp eq i32 %92, %39
  %94 = select i1 %91, i1 true, i1 %93
  %95 = zext i1 %94 to i32
  %96 = add nsw i32 %88, %95
  %97 = add nuw nsw i64 %87, 1
  %98 = icmp eq i64 %97, %24
  br i1 %98, label %26, label %86, !llvm.loop !14

99:                                               ; preds = %26, %20
  %100 = phi i32 [ 0, %20 ], [ %27, %26 ]
  %101 = call nonnull align 8 dereferenceable(8) %"class.std::basic_ostream"* @_ZNSolsEi(%"class.std::basic_ostream"* nonnull align 8 dereferenceable(8) @_ZSt4cout, i32 %100)
  %102 = bitcast %"class.std::basic_ostream"* %101 to i8**
  %103 = load i8*, i8** %102, align 8, !tbaa !16
  %104 = getelementptr i8, i8* %103, i64 -24
  %105 = bitcast i8* %104 to i64*
  %106 = load i64, i64* %105, align 8
  %107 = bitcast %"class.std::basic_ostream"* %101 to i8*
  %108 = add nsw i64 %106, 240
  %109 = getelementptr inbounds i8, i8* %107, i64 %108
  %110 = bitcast i8* %109 to %"class.std::ctype"**
  %111 = load %"class.std::ctype"*, %"class.std::ctype"** %110, align 8, !tbaa !18
  %112 = icmp eq %"class.std::ctype"* %111, null
  br i1 %112, label %113, label %114

113:                                              ; preds = %99
  call void @_ZSt16__throw_bad_castv() #9
  unreachable

114:                                              ; preds = %99
  %115 = getelementptr inbounds %"class.std::ctype", %"class.std::ctype"* %111, i64 0, i32 8
  %116 = load i8, i8* %115, align 8, !tbaa !22
  %117 = icmp eq i8 %116, 0
  br i1 %117, label %121, label %118

118:                                              ; preds = %114
  %119 = getelementptr inbounds %"class.std::ctype", %"class.std::ctype"* %111, i64 0, i32 9, i64 10
  %120 = load i8, i8* %119, align 1, !tbaa !24
  br label %127

121:                                              ; preds = %114
  call void @_ZNKSt5ctypeIcE13_M_widen_initEv(%"class.std::ctype"* nonnull align 8 dereferenceable(570) %111)
  %122 = bitcast %"class.std::ctype"* %111 to i8 (%"class.std::ctype"*, i8)***
  %123 = load i8 (%"class.std::ctype"*, i8)**, i8 (%"class.std::ctype"*, i8)*** %122, align 8, !tbaa !16
  %124 = getelementptr inbounds i8 (%"class.std::ctype"*, i8)*, i8 (%"class.std::ctype"*, i8)** %123, i64 6
  %125 = load i8 (%"class.std::ctype"*, i8)*, i8 (%"class.std::ctype"*, i8)** %124, align 8
  %126 = call signext i8 %125(%"class.std::ctype"* nonnull align 8 dereferenceable(570) %111, i8 signext 10)
  br label %127

127:                                              ; preds = %118, %121
  %128 = phi i8 [ %120, %118 ], [ %126, %121 ]
  %129 = call nonnull align 8 dereferenceable(8) %"class.std::basic_ostream"* @_ZNSo3putEc(%"class.std::basic_ostream"* nonnull align 8 dereferenceable(8) %101, i8 signext %128)
  %130 = call nonnull align 8 dereferenceable(8) %"class.std::basic_ostream"* @_ZNSo5flushEv(%"class.std::basic_ostream"* nonnull align 8 dereferenceable(8) %129)
  br label %12

131:                                              ; preds = %15
  call void @llvm.lifetime.end.p0i8(i64 68, i8* nonnull %2) #8
  ret i32 0
}

; Function Attrs: argmemonly mustprogress nofree nosync nounwind willreturn
declare void @llvm.lifetime.start.p0i8(i64 immarg, i8* nocapture) #4

declare nonnull align 8 dereferenceable(16) %"class.std::basic_istream"* @_ZNSirsERi(%"class.std::basic_istream"* nonnull align 8 dereferenceable(16), i32* nonnull align 4 dereferenceable(4)) local_unnamed_addr #0

declare nonnull align 8 dereferenceable(8) %"class.std::basic_ostream"* @_ZNSolsEi(%"class.std::basic_ostream"* nonnull align 8 dereferenceable(8), i32) local_unnamed_addr #0

; Function Attrs: argmemonly mustprogress nofree nosync nounwind willreturn
declare void @llvm.lifetime.end.p0i8(i64 immarg, i8* nocapture) #4

declare nonnull align 8 dereferenceable(8) %"class.std::basic_ostream"* @_ZNSo3putEc(%"class.std::basic_ostream"* nonnull align 8 dereferenceable(8), i8 signext) local_unnamed_addr #0

declare nonnull align 8 dereferenceable(8) %"class.std::basic_ostream"* @_ZNSo5flushEv(%"class.std::basic_ostream"* nonnull align 8 dereferenceable(8)) local_unnamed_addr #0

; Function Attrs: noreturn
declare void @_ZSt16__throw_bad_castv() local_unnamed_addr #5

declare void @_ZNKSt5ctypeIcE13_M_widen_initEv(%"class.std::ctype"* nonnull align 8 dereferenceable(570)) local_unnamed_addr #0

; Function Attrs: sspstrong uwtable
define internal void @_GLOBAL__sub_I_782.cpp() #6 section ".text.startup" {
  tail call void @_ZNSt8ios_base4InitC1Ev(%"class.std::ios_base::Init"* nonnull align 1 dereferenceable(1) @_ZStL8__ioinit)
  %1 = tail call i32 @__cxa_atexit(void (i8*)* bitcast (void (%"class.std::ios_base::Init"*)* @_ZNSt8ios_base4InitD1Ev to void (i8*)*), i8* getelementptr inbounds (%"class.std::ios_base::Init", %"class.std::ios_base::Init"* @_ZStL8__ioinit, i64 0, i32 0), i8* nonnull @__dso_handle) #8
  ret void
}

; Function Attrs: nofree nosync nounwind readnone willreturn
declare i32 @llvm.vector.reduce.add.v4i32(<4 x i32>) #7


!llvm.module.flags = !{!0, !1, !2, !3}
!llvm.ident = !{!4}

!0 = !{i32 1, !"wchar_size", i32 4}
!1 = !{i32 7, !"PIC Level", i32 2}
!2 = !{i32 7, !"PIE Level", i32 2}
!3 = !{i32 7, !"uwtable", i32 1}
!4 = !{!"clang version 13.0.0"}
!5 = !{!6, !6, i64 0}
!6 = !{!"int", !7, i64 0}
!7 = !{!"omnipotent char", !8, i64 0}
!8 = !{!"Simple C++ TBAA"}
!9 = distinct !{!9, !10}
!10 = !{!"llvm.loop.mustprogress"}
!11 = distinct !{!11, !10}
!12 = distinct !{!12, !10, !13}
!13 = !{!"llvm.loop.isvectorized", i32 1}
!14 = distinct !{!14, !10, !15, !13}
!15 = !{!"llvm.loop.unroll.runtime.disable"}
!16 = !{!17, !17, i64 0}
!17 = !{!"vtable pointer", !8, i64 0}
!18 = !{!19, !20, i64 240}
!19 = !{!"_ZTSSt9basic_iosIcSt11char_traitsIcEE", !20, i64 216, !7, i64 224, !21, i64 225, !20, i64 232, !20, i64 240, !20, i64 248, !20, i64 256}
!20 = !{!"any pointer", !7, i64 0}
!21 = !{!"bool", !7, i64 0}
!22 = !{!23, !7, i64 56}
!23 = !{!"_ZTSSt5ctypeIcE", !20, i64 16, !21, i64 24, !20, i64 32, !20, i64 40, !20, i64 48, !7, i64 56, !7, i64 57, !7, i64 313, !7, i64 569}
!24 = !{!7, !7, i64 0}
